target datalayout = "e-m:e-p270:32:32-p271:32:32-p272:64:64-i64:64-i128:128-f80:128-n8:16:32:64-S128"
target triple = "x86_64-pc-linux-gnu"

%"class.Luau::detail::DenseHashTable" = type <{ ptr, i64, i64, ptr, [8 x i8] }>
%"class.Luau::detail::DenseHashTable<const Luau::Type *, const Luau::Type *, const Luau::Type *, Luau::detail::ItemInterfaceSet<const Luau::Type *>, Luau::DenseHashPointer, std::equal_to<const Luau::Type *>>::iterator" = type { ptr, i64 }
%class.anon.572 = type { i8 }

; Function Attrs: mustprogress nounwind uwtable
define linkonce_odr dso_local noundef zeroext i1 @_ZNKSt8equal_toIPKN4Luau4TypeEEclERKS3_S6_(ptr noundef nonnull align 1 dereferenceable(1) %0, ptr noundef nonnull align 8 dereferenceable(8) %1, ptr noundef nonnull align 8 dereferenceable(8) %2) #2 comdat align 2 {
  %4 = alloca ptr, align 8
  %5 = alloca ptr, align 8
  %6 = alloca ptr, align 8
  store ptr %0, ptr %4, align 8, !tbaa !2364
  store ptr %1, ptr %5, align 8, !tbaa !172
  store ptr %2, ptr %6, align 8, !tbaa !172
  %7 = load ptr, ptr %5, align 8, !tbaa !172
  %8 = load ptr, ptr %7, align 8, !tbaa !42
  %9 = load ptr, ptr %6, align 8, !tbaa !172
  %10 = load ptr, ptr %9, align 8, !tbaa !42
  %11 = icmp eq ptr %8, %10
  ret i1 %11
}

; Function Attrs: mustprogress nounwind uwtable
define linkonce_odr dso_local noundef nonnull align 8 dereferenceable(8) ptr @_ZN4Luau6detail16ItemInterfaceSetIPKNS_4TypeEE6getKeyERKS4_(ptr noundef nonnull align 8 dereferenceable(8) %0) #2 comdat align 2 {
  %2 = alloca ptr, align 8
  store ptr %0, ptr %2, align 8, !tbaa !172
  %3 = load ptr, ptr %2, align 8, !tbaa !172
  ret ptr %3
}

; Function Attrs: mustprogress nounwind uwtable
define linkonce_odr dso_local noundef nonnull align 8 dereferenceable(16) ptr @_ZN4Luau6detail14DenseHashTableIPKNS_4TypeES4_S4_NS0_16ItemInterfaceSetIS4_EENS_16DenseHashPointerESt8equal_toIS4_EE8iteratorppEv(ptr noundef nonnull align 8 dereferenceable(16) %0) #2 comdat align 2 {
  %2 = alloca ptr, align 8
  %3 = alloca i64, align 8
  store ptr %0, ptr %2, align 8, !tbaa !619
  %4 = load ptr, ptr %2, align 8
  call void @llvm.lifetime.start.p0(i64 8, ptr %3) #4
  %5 = getelementptr inbounds nuw %"class.Luau::detail::DenseHashTable<const Luau::Type *, const Luau::Type *, const Luau::Type *, Luau::detail::ItemInterfaceSet<const Luau::Type *>, Luau::DenseHashPointer, std::equal_to<const Luau::Type *>>::iterator", ptr %4, i32 0, i32 0
  %6 = load ptr, ptr %5, align 8, !tbaa !621
  %7 = getelementptr inbounds nuw %"class.Luau::detail::DenseHashTable", ptr %6, i32 0, i32 1
  %8 = load i64, ptr %7, align 8, !tbaa !627
  store i64 %8, ptr %3, align 8, !tbaa !173
  br label %9

9:                                                ; preds = %34, %1
  %10 = getelementptr inbounds nuw %"class.Luau::detail::DenseHashTable<const Luau::Type *, const Luau::Type *, const Luau::Type *, Luau::detail::ItemInterfaceSet<const Luau::Type *>, Luau::DenseHashPointer, std::equal_to<const Luau::Type *>>::iterator", ptr %4, i32 0, i32 1
  %11 = load i64, ptr %10, align 8, !tbaa !624
  %12 = add i64 %11, 1
  store i64 %12, ptr %10, align 8, !tbaa !624
  br label %13

13:                                               ; preds = %9
  %14 = getelementptr inbounds nuw %"class.Luau::detail::DenseHashTable<const Luau::Type *, const Luau::Type *, const Luau::Type *, Luau::detail::ItemInterfaceSet<const Luau::Type *>, Luau::DenseHashPointer, std::equal_to<const Luau::Type *>>::iterator", ptr %4, i32 0, i32 1
  %15 = load i64, ptr %14, align 8, !tbaa !624
  %16 = load i64, ptr %3, align 8, !tbaa !173
  %17 = icmp ult i64 %15, %16
  br i1 %17, label %18, label %34

18:                                               ; preds = %13
  %19 = getelementptr inbounds nuw %"class.Luau::detail::DenseHashTable<const Luau::Type *, const Luau::Type *, const Luau::Type *, Luau::detail::ItemInterfaceSet<const Luau::Type *>, Luau::DenseHashPointer, std::equal_to<const Luau::Type *>>::iterator", ptr %4, i32 0, i32 0
  %20 = load ptr, ptr %19, align 8, !tbaa !621
  %21 = getelementptr inbounds i8, ptr %20, i64 33
  %22 = getelementptr inbounds nuw %"class.Luau::detail::DenseHashTable<const Luau::Type *, const Luau::Type *, const Luau::Type *, Luau::detail::ItemInterfaceSet<const Luau::Type *>, Luau::DenseHashPointer, std::equal_to<const Luau::Type *>>::iterator", ptr %4, i32 0, i32 0
  %23 = load ptr, ptr %22, align 8, !tbaa !621
  %24 = getelementptr inbounds nuw %"class.Luau::detail::DenseHashTable", ptr %23, i32 0, i32 0
  %25 = load ptr, ptr %24, align 8, !tbaa !625
  %26 = getelementptr inbounds nuw %"class.Luau::detail::DenseHashTable<const Luau::Type *, const Luau::Type *, const Luau::Type *, Luau::detail::ItemInterfaceSet<const Luau::Type *>, Luau::DenseHashPointer, std::equal_to<const Luau::Type *>>::iterator", ptr %4, i32 0, i32 1
  %27 = load i64, ptr %26, align 8, !tbaa !624
  %28 = getelementptr inbounds nuw ptr, ptr %25, i64 %27
  %29 = call noundef nonnull align 8 dereferenceable(8) ptr @_ZN4Luau6detail16ItemInterfaceSetIPKNS_4TypeEE6getKeyERKS4_(ptr noundef nonnull align 8 dereferenceable(8) %28)
  %30 = getelementptr inbounds nuw %"class.Luau::detail::DenseHashTable<const Luau::Type *, const Luau::Type *, const Luau::Type *, Luau::detail::ItemInterfaceSet<const Luau::Type *>, Luau::DenseHashPointer, std::equal_to<const Luau::Type *>>::iterator", ptr %4, i32 0, i32 0
  %31 = load ptr, ptr %30, align 8, !tbaa !621
  %32 = getelementptr inbounds nuw %"class.Luau::detail::DenseHashTable", ptr %31, i32 0, i32 3
  %33 = call noundef zeroext i1 @_ZNKSt8equal_toIPKN4Luau4TypeEEclERKS3_S6_(ptr noundef nonnull align 1 dereferenceable(1) %21, ptr noundef nonnull align 8 dereferenceable(8) %29, ptr noundef nonnull align 8 dereferenceable(8) %32)
  br label %34

34:                                               ; preds = %18, %13
  %35 = phi i1 [ false, %13 ], [ %33, %18 ]
  br i1 %35, label %9, label %36, !llvm.loop !628

36:                                               ; preds = %34
  call void @llvm.lifetime.end.p0(i64 8, ptr %3) #4
  ret ptr %4
}

; Function Attrs: inlinehint mustprogress uwtable
define internal noundef ptr @"_ZZN4Luau17indexFunctionImplERKSt6vectorIPKNS_4TypeESaIS3_EERKS0_IPKNS_11TypePackVarESaISA_EENS_7NotNullINS_19TypeFunctionContextEEEbENK3$_0clES3_"(ptr noundef nonnull align 1 dereferenceable(1) %0, ptr noundef %1) #5 align 2 {
  %3 = alloca ptr, align 8
  %4 = alloca ptr, align 8
  store ptr %0, ptr %3, align 8, !tbaa !51
  store ptr %1, ptr %4, align 8, !tbaa !42
  %5 = load ptr, ptr %4, align 8, !tbaa !42
  %6 = call noundef ptr @_ZN4Luau6followEPKNS_4TypeE(ptr noundef %5)
  ret ptr %6
}

; Function Attrs: mustprogress nounwind uwtable
define linkonce_odr dso_local noundef nonnull align 8 dereferenceable(8) ptr @_ZNK4Luau6detail14DenseHashTableIPKNS_4TypeES4_S4_NS0_16ItemInterfaceSetIS4_EENS_16DenseHashPointerESt8equal_toIS4_EE8iteratordeEv(ptr noundef nonnull align 8 dereferenceable(16) %0) #2 comdat align 2 {
  %2 = alloca ptr, align 8
  store ptr %0, ptr %2, align 8, !tbaa !619
  %3 = load ptr, ptr %2, align 8
  %4 = getelementptr inbounds nuw %"class.Luau::detail::DenseHashTable<const Luau::Type *, const Luau::Type *, const Luau::Type *, Luau::detail::ItemInterfaceSet<const Luau::Type *>, Luau::DenseHashPointer, std::equal_to<const Luau::Type *>>::iterator", ptr %3, i32 0, i32 0
  %5 = load ptr, ptr %4, align 8, !tbaa !621
  %6 = getelementptr inbounds nuw %"class.Luau::detail::DenseHashTable", ptr %5, i32 0, i32 0
  %7 = load ptr, ptr %6, align 8, !tbaa !625
  %8 = getelementptr inbounds nuw %"class.Luau::detail::DenseHashTable<const Luau::Type *, const Luau::Type *, const Luau::Type *, Luau::detail::ItemInterfaceSet<const Luau::Type *>, Luau::DenseHashPointer, std::equal_to<const Luau::Type *>>::iterator", ptr %3, i32 0, i32 1
  %9 = load i64, ptr %8, align 8, !tbaa !624
  %10 = getelementptr inbounds nuw ptr, ptr %7, i64 %9
  ret ptr %10
}

; Function Attrs: mustprogress nounwind uwtable
define linkonce_odr dso_local noundef zeroext i1 @_ZNK4Luau6detail14DenseHashTableIPKNS_4TypeES4_S4_NS0_16ItemInterfaceSetIS4_EENS_16DenseHashPointerESt8equal_toIS4_EE8iteratorneERKSB_(ptr noundef nonnull align 8 dereferenceable(16) %0, ptr noundef nonnull align 8 dereferenceable(16) %1) #2 comdat align 2 {
  %3 = alloca ptr, align 8
  %4 = alloca ptr, align 8
  store ptr %0, ptr %3, align 8, !tbaa !619
  store ptr %1, ptr %4, align 8, !tbaa !619
  %5 = load ptr, ptr %3, align 8
  %6 = getelementptr inbounds nuw %"class.Luau::detail::DenseHashTable<const Luau::Type *, const Luau::Type *, const Luau::Type *, Luau::detail::ItemInterfaceSet<const Luau::Type *>, Luau::DenseHashPointer, std::equal_to<const Luau::Type *>>::iterator", ptr %5, i32 0, i32 0
  %7 = load ptr, ptr %6, align 8, !tbaa !621
  %8 = load ptr, ptr %4, align 8, !tbaa !619
  %9 = getelementptr inbounds nuw %"class.Luau::detail::DenseHashTable<const Luau::Type *, const Luau::Type *, const Luau::Type *, Luau::detail::ItemInterfaceSet<const Luau::Type *>, Luau::DenseHashPointer, std::equal_to<const Luau::Type *>>::iterator", ptr %8, i32 0, i32 0
  %10 = load ptr, ptr %9, align 8, !tbaa !621
  %11 = icmp ne ptr %7, %10
  br i1 %11, label %19, label %12

12:                                               ; preds = %2
  %13 = getelementptr inbounds nuw %"class.Luau::detail::DenseHashTable<const Luau::Type *, const Luau::Type *, const Luau::Type *, Luau::detail::ItemInterfaceSet<const Luau::Type *>, Luau::DenseHashPointer, std::equal_to<const Luau::Type *>>::iterator", ptr %5, i32 0, i32 1
  %14 = load i64, ptr %13, align 8, !tbaa !624
  %15 = load ptr, ptr %4, align 8, !tbaa !619
  %16 = getelementptr inbounds nuw %"class.Luau::detail::DenseHashTable<const Luau::Type *, const Luau::Type *, const Luau::Type *, Luau::detail::ItemInterfaceSet<const Luau::Type *>, Luau::DenseHashPointer, std::equal_to<const Luau::Type *>>::iterator", ptr %15, i32 0, i32 1
  %17 = load i64, ptr %16, align 8, !tbaa !624
  %18 = icmp ne i64 %14, %17
  br label %19

19:                                               ; preds = %12, %2
  %20 = phi i1 [ true, %2 ], [ %18, %12 ]
  ret i1 %20
}

; Function Attrs: mustprogress uwtable
define internal { ptr, i64 } @"_ZSt9transformIN4Luau6detail14DenseHashTableIPKNS0_4TypeES5_S5_NS1_16ItemInterfaceSetIS5_EENS0_16DenseHashPointerESt8equal_toIS5_EE8iteratorESC_ZNS0_17indexFunctionImplERKSt6vectorIS5_SaIS5_EERKSD_IPKNS0_11TypePackVarESaISK_EENS0_7NotNullINS0_19TypeFunctionContextEEEbE3$_0ET0_T_SU_ST_T1_"(ptr %0, i64 %1, ptr %2, i64 %3, ptr %4, i64 %5) #6 {
  %7 = alloca %"class.Luau::detail::DenseHashTable<const Luau::Type *, const Luau::Type *, const Luau::Type *, Luau::detail::ItemInterfaceSet<const Luau::Type *>, Luau::DenseHashPointer, std::equal_to<const Luau::Type *>>::iterator", align 8
  %8 = alloca %"class.Luau::detail::DenseHashTable<const Luau::Type *, const Luau::Type *, const Luau::Type *, Luau::detail::ItemInterfaceSet<const Luau::Type *>, Luau::DenseHashPointer, std::equal_to<const Luau::Type *>>::iterator", align 8
  %9 = alloca %"class.Luau::detail::DenseHashTable<const Luau::Type *, const Luau::Type *, const Luau::Type *, Luau::detail::ItemInterfaceSet<const Luau::Type *>, Luau::DenseHashPointer, std::equal_to<const Luau::Type *>>::iterator", align 8
  %10 = alloca %"class.Luau::detail::DenseHashTable<const Luau::Type *, const Luau::Type *, const Luau::Type *, Luau::detail::ItemInterfaceSet<const Luau::Type *>, Luau::DenseHashPointer, std::equal_to<const Luau::Type *>>::iterator", align 8
  %11 = alloca %class.anon.572, align 1
  %12 = getelementptr inbounds nuw { ptr, i64 }, ptr %8, i32 0, i32 0
  store ptr %0, ptr %12, align 8
  %13 = getelementptr inbounds nuw { ptr, i64 }, ptr %8, i32 0, i32 1
  store i64 %1, ptr %13, align 8
  %14 = getelementptr inbounds nuw { ptr, i64 }, ptr %9, i32 0, i32 0
  store ptr %2, ptr %14, align 8
  %15 = getelementptr inbounds nuw { ptr, i64 }, ptr %9, i32 0, i32 1
  store i64 %3, ptr %15, align 8
  %16 = getelementptr inbounds nuw { ptr, i64 }, ptr %10, i32 0, i32 0
  store ptr %4, ptr %16, align 8
  %17 = getelementptr inbounds nuw { ptr, i64 }, ptr %10, i32 0, i32 1
  store i64 %5, ptr %17, align 8
  br label %18

18:                                               ; preds = %25, %6
  %19 = call noundef zeroext i1 @_ZNK4Luau6detail14DenseHashTableIPKNS_4TypeES4_S4_NS0_16ItemInterfaceSetIS4_EENS_16DenseHashPointerESt8equal_toIS4_EE8iteratorneERKSB_(ptr noundef nonnull align 8 dereferenceable(16) %8, ptr noundef nonnull align 8 dereferenceable(16) %9)
  br i1 %19, label %20, label %28

20:                                               ; preds = %18
  %21 = call noundef nonnull align 8 dereferenceable(8) ptr @_ZNK4Luau6detail14DenseHashTableIPKNS_4TypeES4_S4_NS0_16ItemInterfaceSetIS4_EENS_16DenseHashPointerESt8equal_toIS4_EE8iteratordeEv(ptr noundef nonnull align 8 dereferenceable(16) %8)
  %22 = load ptr, ptr %21, align 8, !tbaa !42
  %23 = call noundef ptr @"_ZZN4Luau17indexFunctionImplERKSt6vectorIPKNS_4TypeESaIS3_EERKS0_IPKNS_11TypePackVarESaISA_EENS_7NotNullINS_19TypeFunctionContextEEEbENK3$_0clES3_"(ptr noundef nonnull align 1 dereferenceable(1) %11, ptr noundef %22)
  %24 = call noundef nonnull align 8 dereferenceable(8) ptr @_ZNK4Luau6detail14DenseHashTableIPKNS_4TypeES4_S4_NS0_16ItemInterfaceSetIS4_EENS_16DenseHashPointerESt8equal_toIS4_EE8iteratordeEv(ptr noundef nonnull align 8 dereferenceable(16) %10)
  store ptr %23, ptr %24, align 8, !tbaa !42
  br label %25

25:                                               ; preds = %20
  %26 = call noundef nonnull align 8 dereferenceable(16) ptr @_ZN4Luau6detail14DenseHashTableIPKNS_4TypeES4_S4_NS0_16ItemInterfaceSetIS4_EENS_16DenseHashPointerESt8equal_toIS4_EE8iteratorppEv(ptr noundef nonnull align 8 dereferenceable(16) %8)
  %27 = call noundef nonnull align 8 dereferenceable(16) ptr @_ZN4Luau6detail14DenseHashTableIPKNS_4TypeES4_S4_NS0_16ItemInterfaceSetIS4_EENS_16DenseHashPointerESt8equal_toIS4_EE8iteratorppEv(ptr noundef nonnull align 8 dereferenceable(16) %10)
  br label %18, !llvm.loop !689

28:                                               ; preds = %18
  call void @llvm.memcpy.p0.p0.i64(ptr align 8 %7, ptr align 8 %10, i64 16, i1 false), !tbaa.struct !650
  %29 = load { ptr, i64 }, ptr %7, align 8
  ret { ptr, i64 } %29
}