; Function Attrs: mustprogress uwtable
define internal fastcc void @"_ZSt9transformIN4Luau6detail14DenseHashTableIPKNS0_4TypeES5_S5_NS1_16ItemInterfaceSetIS5_EENS0_16DenseHashPointerESt8equal_toIS5_EE8iteratorESC_ZNS0_17indexFunctionImplERKSt6vectorIS5_SaIS5_EERKSD_IPKNS0_11TypePackVarESaISK_EENS0_7NotNullINS0_19TypeFunctionContextEEEbE3$_0ET0_T_SU_ST_T1_"(ptr readonly %0, i64 %1, ptr readnone %2, i64 %3, ptr %4, i64 %5) unnamed_addr #4 {
  %.not.i = icmp ne ptr %0, %2
  %.not.i.fr = freeze i1 %.not.i
  %7 = icmp ne i64 %1, %3
  %8 = select i1 %.not.i.fr, i1 true, i1 %7
  br i1 %8, label %.lr.ph, label %._crit_edge

.lr.ph:                                           ; preds = %6
  %9 = getelementptr inbounds nuw i8, ptr %0, i64 8
  %10 = getelementptr inbounds nuw i8, ptr %0, i64 24
  %11 = getelementptr inbounds nuw i8, ptr %4, i64 8
  %12 = getelementptr inbounds nuw i8, ptr %4, i64 24
  br i1 %.not.i.fr, label %.lr.ph.split.us, label %.lr.ph.split

.lr.ph.split.us.loopexit:                         ; preds = %36, %34
  %.sroa.4.015.us.ph = phi i64 [ %umax.i2.us, %34 ], [ %37, %36 ]
  br label %.lr.ph.split.us

.lr.ph.split.us:                                  ; preds = %.lr.ph, %.lr.ph.split.us.loopexit
  %.sroa.412.016.us = phi i64 [ %.lcssa.i.us, %.lr.ph.split.us.loopexit ], [ %1, %.lr.ph ]
  %.sroa.4.015.us = phi i64 [ %.sroa.4.015.us.ph, %.lr.ph.split.us.loopexit ], [ %5, %.lr.ph ]
  %13 = load ptr, ptr %0, align 8, !tbaa !204
  %14 = getelementptr inbounds nuw ptr, ptr %13, i64 %.sroa.412.016.us
  %15 = load ptr, ptr %14, align 8, !tbaa !119
  %16 = tail call noundef ptr @_ZN4Luau6followEPKNS_4TypeE(ptr noundef %15)
  %17 = load ptr, ptr %4, align 8, !tbaa !204
  %18 = getelementptr inbounds nuw ptr, ptr %17, i64 %.sroa.4.015.us
  store ptr %16, ptr %18, align 8, !tbaa !119
  %19 = load i64, ptr %9, align 8, !tbaa !205
  %20 = add i64 %.sroa.412.016.us, 1
  %umax.i.us = tail call i64 @llvm.umax.i64(i64 %19, i64 %20)
  %21 = add i64 %umax.i.us, -1
  br label %22

22:                                               ; preds = %24, %.lr.ph.split.us
  %23 = phi i64 [ %25, %24 ], [ %.sroa.412.016.us, %.lr.ph.split.us ]
  %exitcond18.not = icmp eq i64 %23, %21
  br i1 %exitcond18.not, label %_ZN4Luau6detail14DenseHashTableIPKNS_4TypeES4_S4_NS0_16ItemInterfaceSetIS4_EENS_16DenseHashPointerESt8equal_toIS4_EE8iteratorppEv.exit.us, label %24

24:                                               ; preds = %22
  %25 = add i64 %23, 1
  %26 = load ptr, ptr %0, align 8, !tbaa !204
  %27 = getelementptr inbounds nuw ptr, ptr %26, i64 %25
  %28 = load ptr, ptr %27, align 8, !tbaa !119
  %29 = load ptr, ptr %10, align 8, !tbaa !119
  %30 = icmp eq ptr %28, %29
  br i1 %30, label %22, label %_ZN4Luau6detail14DenseHashTableIPKNS_4TypeES4_S4_NS0_16ItemInterfaceSetIS4_EENS_16DenseHashPointerESt8equal_toIS4_EE8iteratorppEv.exit.us, !llvm.loop !581

_ZN4Luau6detail14DenseHashTableIPKNS_4TypeES4_S4_NS0_16ItemInterfaceSetIS4_EENS_16DenseHashPointerESt8equal_toIS4_EE8iteratorppEv.exit.us: ; preds = %24, %22
  %.lcssa.i.us = phi i64 [ %umax.i.us, %22 ], [ %25, %24 ]
  %31 = load i64, ptr %11, align 8, !tbaa !205
  %32 = add i64 %.sroa.4.015.us, 1
  %umax.i2.us = tail call i64 @llvm.umax.i64(i64 %31, i64 %32)
  %33 = add i64 %umax.i2.us, -1
  br label %34

34:                                               ; preds = %36, %_ZN4Luau6detail14DenseHashTableIPKNS_4TypeES4_S4_NS0_16ItemInterfaceSetIS4_EENS_16DenseHashPointerESt8equal_toIS4_EE8iteratorppEv.exit.us
  %35 = phi i64 [ %37, %36 ], [ %.sroa.4.015.us, %_ZN4Luau6detail14DenseHashTableIPKNS_4TypeES4_S4_NS0_16ItemInterfaceSetIS4_EENS_16DenseHashPointerESt8equal_toIS4_EE8iteratorppEv.exit.us ]
  %exitcond19.not = icmp eq i64 %35, %33
  br i1 %exitcond19.not, label %.lr.ph.split.us.loopexit, label %36

36:                                               ; preds = %34
  %37 = add i64 %35, 1
  %38 = getelementptr inbounds nuw ptr, ptr %17, i64 %37
  %39 = load ptr, ptr %38, align 8, !tbaa !119
  %40 = load ptr, ptr %12, align 8, !tbaa !119
  %41 = icmp eq ptr %39, %40
  br i1 %41, label %34, label %.lr.ph.split.us.loopexit, !llvm.loop !581

.lr.ph.split:                                     ; preds = %.lr.ph, %_ZN4Luau6detail14DenseHashTableIPKNS_4TypeES4_S4_NS0_16ItemInterfaceSetIS4_EENS_16DenseHashPointerESt8equal_toIS4_EE8iteratorppEv.exit4
  %.sroa.412.016 = phi i64 [ %.lcssa.i, %_ZN4Luau6detail14DenseHashTableIPKNS_4TypeES4_S4_NS0_16ItemInterfaceSetIS4_EENS_16DenseHashPointerESt8equal_toIS4_EE8iteratorppEv.exit4 ], [ %1, %.lr.ph ]
  %.sroa.4.015 = phi i64 [ %.lcssa.i3, %_ZN4Luau6detail14DenseHashTableIPKNS_4TypeES4_S4_NS0_16ItemInterfaceSetIS4_EENS_16DenseHashPointerESt8equal_toIS4_EE8iteratorppEv.exit4 ], [ %5, %.lr.ph ]
  %42 = load ptr, ptr %0, align 8, !tbaa !204
  %43 = getelementptr inbounds nuw ptr, ptr %42, i64 %.sroa.412.016
  %44 = load ptr, ptr %43, align 8, !tbaa !119
  %45 = tail call noundef ptr @_ZN4Luau6followEPKNS_4TypeE(ptr noundef %44)
  %46 = load ptr, ptr %4, align 8, !tbaa !204
  %47 = getelementptr inbounds nuw ptr, ptr %46, i64 %.sroa.4.015
  store ptr %45, ptr %47, align 8, !tbaa !119
  %48 = load i64, ptr %9, align 8, !tbaa !205
  %49 = add i64 %.sroa.412.016, 1
  %umax.i = tail call i64 @llvm.umax.i64(i64 %48, i64 %49)
  %50 = add i64 %umax.i, -1
  br label %51

51:                                               ; preds = %53, %.lr.ph.split
  %52 = phi i64 [ %54, %53 ], [ %.sroa.412.016, %.lr.ph.split ]
  %exitcond.not = icmp eq i64 %52, %50
  br i1 %exitcond.not, label %_ZN4Luau6detail14DenseHashTableIPKNS_4TypeES4_S4_NS0_16ItemInterfaceSetIS4_EENS_16DenseHashPointerESt8equal_toIS4_EE8iteratorppEv.exit, label %53

53:                                               ; preds = %51
  %54 = add i64 %52, 1
  %55 = load ptr, ptr %0, align 8, !tbaa !204
  %56 = getelementptr inbounds nuw ptr, ptr %55, i64 %54
  %57 = load ptr, ptr %56, align 8, !tbaa !119
  %58 = load ptr, ptr %10, align 8, !tbaa !119
  %59 = icmp eq ptr %57, %58
  br i1 %59, label %51, label %_ZN4Luau6detail14DenseHashTableIPKNS_4TypeES4_S4_NS0_16ItemInterfaceSetIS4_EENS_16DenseHashPointerESt8equal_toIS4_EE8iteratorppEv.exit, !llvm.loop !581

_ZN4Luau6detail14DenseHashTableIPKNS_4TypeES4_S4_NS0_16ItemInterfaceSetIS4_EENS_16DenseHashPointerESt8equal_toIS4_EE8iteratorppEv.exit: ; preds = %51, %53
  %.lcssa.i = phi i64 [ %umax.i, %51 ], [ %54, %53 ]
  %60 = load i64, ptr %11, align 8, !tbaa !205
  %61 = add i64 %.sroa.4.015, 1
  %umax.i2 = tail call i64 @llvm.umax.i64(i64 %60, i64 %61)
  %62 = add i64 %umax.i2, -1
  br label %63

63:                                               ; preds = %65, %_ZN4Luau6detail14DenseHashTableIPKNS_4TypeES4_S4_NS0_16ItemInterfaceSetIS4_EENS_16DenseHashPointerESt8equal_toIS4_EE8iteratorppEv.exit
  %64 = phi i64 [ %66, %65 ], [ %.sroa.4.015, %_ZN4Luau6detail14DenseHashTableIPKNS_4TypeES4_S4_NS0_16ItemInterfaceSetIS4_EENS_16DenseHashPointerESt8equal_toIS4_EE8iteratorppEv.exit ]
  %exitcond17.not = icmp eq i64 %64, %62
  br i1 %exitcond17.not, label %_ZN4Luau6detail14DenseHashTableIPKNS_4TypeES4_S4_NS0_16ItemInterfaceSetIS4_EENS_16DenseHashPointerESt8equal_toIS4_EE8iteratorppEv.exit4, label %65

65:                                               ; preds = %63
  %66 = add i64 %64, 1
  %67 = getelementptr inbounds nuw ptr, ptr %46, i64 %66
  %68 = load ptr, ptr %67, align 8, !tbaa !119
  %69 = load ptr, ptr %12, align 8, !tbaa !119
  %70 = icmp eq ptr %68, %69
  br i1 %70, label %63, label %_ZN4Luau6detail14DenseHashTableIPKNS_4TypeES4_S4_NS0_16ItemInterfaceSetIS4_EENS_16DenseHashPointerESt8equal_toIS4_EE8iteratorppEv.exit4, !llvm.loop !581

_ZN4Luau6detail14DenseHashTableIPKNS_4TypeES4_S4_NS0_16ItemInterfaceSetIS4_EENS_16DenseHashPointerESt8equal_toIS4_EE8iteratorppEv.exit4: ; preds = %63, %65
  %.lcssa.i3 = phi i64 [ %umax.i2, %63 ], [ %66, %65 ]
  %.not = icmp eq i64 %.lcssa.i, %3
  br i1 %.not, label %._crit_edge, label %.lr.ph.split, !llvm.loop !648

._crit_edge:                                      ; preds = %_ZN4Luau6detail14DenseHashTableIPKNS_4TypeES4_S4_NS0_16ItemInterfaceSetIS4_EENS_16DenseHashPointerESt8equal_toIS4_EE8iteratorppEv.exit4, %6
  ret void
}